; Function Attrs: mustprogress uwtable
define dso_local void @_ZN31cmGeneratorExpressionDAGCheckerC2E19cmListFileBacktracePK17cmGeneratorTargetNSt7__cxx1112basic_stringIcSt11char_traitsIcESaIcEEEPK26GeneratorExpressionContentPS_(ptr noundef nonnull align 8 dereferenceable(126) initializes((0, 16)) %0, ptr noundef captures(none) %1, ptr noundef %2, ptr noundef nonnull %3, ptr noundef %4, ptr noundef %5) unnamed_addr #3 align 2 personality ptr @__gxx_personality_v0 {
  store ptr %5, ptr %0, align 8
  %7 = getelementptr inbounds nuw i8, ptr %0, i64 8
  store ptr %2, ptr %7, align 8
  %8 = getelementptr inbounds nuw i8, ptr %0, i64 16
  tail call void @_ZNSt7__cxx1112basic_stringIcSt11char_traitsIcESaIcEEC1EOS4_(ptr noundef nonnull align 8 dereferenceable(32) %8, ptr noundef nonnull align 8 dereferenceable(32) %3) #19
  %9 = getelementptr inbounds nuw i8, ptr %0, i64 56
  store i32 0, ptr %9, align 8
  %10 = getelementptr inbounds nuw i8, ptr %0, i64 64
  store ptr null, ptr %10, align 8
  %11 = getelementptr inbounds nuw i8, ptr %0, i64 72
  store ptr %9, ptr %11, align 8
  %12 = getelementptr inbounds nuw i8, ptr %0, i64 80
  store ptr %9, ptr %12, align 8
  %13 = getelementptr inbounds nuw i8, ptr %0, i64 88
  store i64 0, ptr %13, align 8
  %14 = getelementptr inbounds nuw i8, ptr %0, i64 96
  store ptr %4, ptr %14, align 8
  %15 = getelementptr inbounds nuw i8, ptr %0, i64 104
  %16 = load ptr, ptr %1, align 8
  store ptr %16, ptr %15, align 8
  %17 = getelementptr inbounds nuw i8, ptr %0, i64 112
  store ptr null, ptr %17, align 8
  %18 = getelementptr inbounds nuw i8, ptr %1, i64 8
  %19 = load ptr, ptr %18, align 8
  store ptr null, ptr %18, align 8
  store ptr %19, ptr %17, align 8
  store ptr null, ptr %1, align 8
  %20 = getelementptr inbounds nuw i8, ptr %0, i64 124
  store i8 0, ptr %20, align 4
  %21 = getelementptr inbounds nuw i8, ptr %0, i64 125
  store i8 0, ptr %21, align 1
  invoke void @_ZN31cmGeneratorExpressionDAGChecker10InitializeEv(ptr noundef nonnull align 8 dereferenceable(126) %0)
          to label %22 unwind label %23

22:                                               ; preds = %6
  ret void

23:                                               ; preds = %6
  %24 = landingpad { ptr, i32 }
          cleanup
  %25 = getelementptr inbounds nuw i8, ptr %0, i64 48
  tail call void @_ZN19cmListFileBacktraceD2Ev(ptr noundef nonnull align 8 dereferenceable(16) %15) #19
  tail call void @_ZNSt3mapIPK17cmGeneratorTargetSt3setINSt7__cxx1112basic_stringIcSt11char_traitsIcESaIcEEESt4lessIS9_ESaIS9_EESA_IS2_ESaISt4pairIKS2_SD_EEED2Ev(ptr noundef nonnull align 8 dereferenceable(48) %25) #19
  tail call void @_ZNSt7__cxx1112basic_stringIcSt11char_traitsIcESaIcEED1Ev(ptr noundef nonnull align 8 dereferenceable(32) %8) #19
  resume { ptr, i32 } %24
}